c__builtin__
set
p0
((lp1
Vgt
p2
aVsoon
p3
aVyears
p4
aVsleep
p5
aVgo
p6
aVlove
p7
aVcold
p8
aVstill
p9
aVhate
p10
aVsomewhere
p11
aVactually
p12
aVbetter
p13
aVlt
p14
aVgoing
p15
aVth
p16
aVlord
p17
aVweeks
p18
aVhope
p19
aVgood
p20
aVget
p21
aVfood
p22
aVmade
p23
aVevery
p24
aVknow
p25
aVnew
p26
aVamp
p27
aVday
p28
aVschool
p29
aVlike
p30
aValways
p31
aVl
p32
aVtry
p33
aVp
p34
aVbad
p35
aVwit
p36
aVnose
p37
aVnight
p38
aVx
p39
aVright
p40
aVold
p41
aVpeople
p42
aVfucking
p43
aVback
p44
aVwednesday
p45
aVbed
p46
aVyear
p47
aVokay
p48
aVgirl
p49
aVreally
p50
aVrt
p51
aVgon
p52
aVgiving
p53
aVsince
p54
aVplease
p55
aVmess
p56
aVoutside
p57
aVgot
p58
aVever
p59
aVass
p60
aVfull
p61
aVnever
p62
aVguess
p63
aVwater
p64
aVlet
p65
aVasf
p66
aVcough
p67
aVcome
p68
aVboy
p69
aVgreat
p70
aVkids
p71
aVringht
p72
aVg
p73
aVgetting
p74
aVk
p75
aVdays
p76
aVkeep
p77
aVw
p78
aVmakes
p79
aVthink
p80
aVfuckin
p81
aVsneezing
p82
aVco
p83
aVfeel
p84
aVone
p85
aVweather
p86
aVbitch
p87
aVmiss
p88
aVwan
p89
aVlittle
p90
aVwould
p91
aVtired
p92
aVlong
p93
aVstart
p94
aVhttps
p95
aVh
p96
aVwhite
p97
aVtoday
p98
aVheadache
p99
aVbreathe
p100
aVhead
p101
aVbabe
p102
aVclub
p103
aVcoughing
p104
aViamsrk
p105
aVyeah
p106
aVsore
p107
aVheat
p108
aVwarm
p109
aVbaby
p110
aVlast
p111
aVwomen
p112
aVb
p113
aVlook
p114
aVf
p115
aVwork
p116
aVflu
p117
aVus
p118
aVn
p119
aVwoke
p120
aVfeeling
p121
aVheart
p122
aVfuck
p123
aVthroat
p124
aVsay
p125
aVim
p126
aVdems
p127
aVwant
p128
aVhome
p129
aVneed
p130
aVshit
p131
aVtho
p132
aVdying
p133
aVna
p134
aVmake
p135
aVhom
p136
aVya
p137
aVhot
p138
aVtake
p139
aVsick
p140
aVweek
p141
aVeven
p142
aVfever
p143
aVhttp
p144
aVeyes
p145
aVmay
p146
aVmad
p147
aVcoming
p148
aVguys
p149
aVman
p150
aVleast
p151
aVremember
p152
aVwell
p153
aVq
p154
aVu
p155
aVtime
p156
aVworst
p157
atp158
Rp159
.